target datalayout = "e-m:e-p270:32:32-p271:32:32-p272:64:64-i64:64-i128:128-f80:128-n8:16:32:64-S128"
target triple = "x86_64-unknown-linux-gnu"

; Function Attrs: mustprogress nounwind uwtable
define noundef double @_ZN8QuantLib28exponential_integrals_helper1gEd(double noundef %x) #0 {
entry:
  %x.addr = alloca double, align 8
  %x2 = alloca double, align 8
  store double %x, ptr %x.addr, align 8, !tbaa !3
  call void @llvm.lifetime.start.p0(i64 8, ptr %x2) #13
  %0 = load double, ptr %x.addr, align 8, !tbaa !3
  %1 = load double, ptr %x.addr, align 8, !tbaa !3
  %mul = fmul double %0, %1
  %div = fdiv double 1.000000e+00, %mul
  store double %div, ptr %x2, align 8, !tbaa !3
  %2 = load double, ptr %x2, align 8, !tbaa !3
  %3 = load double, ptr %x2, align 8, !tbaa !3
  %4 = load double, ptr %x2, align 8, !tbaa !3
  %5 = load double, ptr %x2, align 8, !tbaa !3
  %6 = load double, ptr %x2, align 8, !tbaa !3
  %7 = load double, ptr %x2, align 8, !tbaa !3
  %8 = load double, ptr %x2, align 8, !tbaa !3
  %9 = load double, ptr %x2, align 8, !tbaa !3
  %10 = load double, ptr %x2, align 8, !tbaa !3
  %11 = load double, ptr %x2, align 8, !tbaa !3
  %12 = load double, ptr %x2, align 8, !tbaa !3
  %neg = fneg double %12
  %13 = call double @llvm.fmuladd.f64(double %neg, double 0x4273DDA8E1244B78, double 0x4297671EB93999FB)
  %14 = call double @llvm.fmuladd.f64(double %11, double %13, double 0x42B07656D15BE275)
  %15 = call double @llvm.fmuladd.f64(double %10, double %14, double 0x429B904D223E0960)
  %16 = call double @llvm.fmuladd.f64(double %9, double %15, double 0x426FBCD2B0A2F417)
  %17 = call double @llvm.fmuladd.f64(double %8, double %16, double 0x422FCE9DE77CB99A)
  %18 = call double @llvm.fmuladd.f64(double %7, double %17, double 0x41DEBDA0F3DDEDB5)
  %19 = call double @llvm.fmuladd.f64(double %6, double %18, double 0x417DCECCD145F373)
  %20 = call double @llvm.fmuladd.f64(double %5, double %19, double 0x410CB73973F89540)
  %21 = call double @llvm.fmuladd.f64(double %4, double %20, double 0x40896CC2F8D24845)
  %22 = call double @llvm.fmuladd.f64(double %3, double %21, double 1.000000e+00)
  %mul11 = fmul double %2, %22
  %23 = load double, ptr %x2, align 8, !tbaa !3
  %24 = load double, ptr %x2, align 8, !tbaa !3
  %25 = load double, ptr %x2, align 8, !tbaa !3
  %26 = load double, ptr %x2, align 8, !tbaa !3
  %27 = load double, ptr %x2, align 8, !tbaa !3
  %28 = load double, ptr %x2, align 8, !tbaa !3
  %29 = load double, ptr %x2, align 8, !tbaa !3
  %30 = load double, ptr %x2, align 8, !tbaa !3
  %31 = load double, ptr %x2, align 8, !tbaa !3
  %32 = call double @llvm.fmuladd.f64(double %31, double 0x42C22C938603268A, double 0x42C24605CD83C6D5)
  %33 = call double @llvm.fmuladd.f64(double %30, double %32, double 0x42A54FE857E62B52)
  %34 = call double @llvm.fmuladd.f64(double %29, double %33, double 0x42745A70E5A94255)
  %35 = call double @llvm.fmuladd.f64(double %28, double %34, double 0x423255A842662ED9)
  %36 = call double @llvm.fmuladd.f64(double %27, double %35, double 0x41E0A42B3D18FDE6)
  %37 = call double @llvm.fmuladd.f64(double %26, double %36, double 0x417F17A2A2A2A5FE)
  %38 = call double @llvm.fmuladd.f64(double %25, double %37, double 0x410D4D2605CEA8F1)
  %39 = call double @llvm.fmuladd.f64(double %24, double %38, double 0x40899CC2F8D24035)
  %40 = call double @llvm.fmuladd.f64(double %23, double %39, double 1.000000e+00)
  %div21 = fdiv double %mul11, %40
  call void @llvm.lifetime.end.p0(i64 8, ptr %x2) #13
  ret double %div21
}