; Function Attrs: mustprogress nofree norecurse nosync nounwind willreturn memory(none) uwtable
define noundef double @_ZN8QuantLib28exponential_integrals_helper1gEd(double noundef %x) local_unnamed_addr #0 {
entry:
  %mul = fmul double %x, %x
  %div = fdiv double 1.000000e+00, %mul
  %neg = fneg double %div
  %0 = tail call double @llvm.fmuladd.f64(double %neg, double 0x4273DDA8E1244B78, double 0x4297671EB93999FB)
  %1 = tail call double @llvm.fmuladd.f64(double %div, double %0, double 0x42B07656D15BE275)
  %2 = tail call double @llvm.fmuladd.f64(double %div, double %1, double 0x429B904D223E0960)
  %3 = tail call double @llvm.fmuladd.f64(double %div, double %2, double 0x426FBCD2B0A2F417)
  %4 = tail call double @llvm.fmuladd.f64(double %div, double %3, double 0x422FCE9DE77CB99A)
  %5 = tail call double @llvm.fmuladd.f64(double %div, double %4, double 0x41DEBDA0F3DDEDB5)
  %6 = tail call double @llvm.fmuladd.f64(double %div, double %5, double 0x417DCECCD145F373)
  %7 = tail call double @llvm.fmuladd.f64(double %div, double %6, double 0x410CB73973F89540)
  %8 = tail call double @llvm.fmuladd.f64(double %div, double %7, double 0x40896CC2F8D24845)
  %9 = tail call double @llvm.fmuladd.f64(double %div, double %8, double 1.000000e+00)
  %mul11 = fmul double %div, %9
  %10 = tail call double @llvm.fmuladd.f64(double %div, double 0x42C22C938603268A, double 0x42C24605CD83C6D5)
  %11 = tail call double @llvm.fmuladd.f64(double %div, double %10, double 0x42A54FE857E62B52)
  %12 = tail call double @llvm.fmuladd.f64(double %div, double %11, double 0x42745A70E5A94255)
  %13 = tail call double @llvm.fmuladd.f64(double %div, double %12, double 0x423255A842662ED9)
  %14 = tail call double @llvm.fmuladd.f64(double %div, double %13, double 0x41E0A42B3D18FDE6)
  %15 = tail call double @llvm.fmuladd.f64(double %div, double %14, double 0x417F17A2A2A2A5FE)
  %16 = tail call double @llvm.fmuladd.f64(double %div, double %15, double 0x410D4D2605CEA8F1)
  %17 = tail call double @llvm.fmuladd.f64(double %div, double %16, double 0x40899CC2F8D24035)
  %18 = tail call double @llvm.fmuladd.f64(double %div, double %17, double 1.000000e+00)
  %div21 = fdiv double %mul11, %18
  ret double %div21
}